; ModuleID = '36/14.c'
source_filename = "36/14.c"
target datalayout = "e-m:e-p270:32:32-p271:32:32-p272:64:64-i64:64-f80:128-n8:16:32:64-S128"
target triple = "x86_64-pc-linux-gnu"

@.str = private unnamed_addr constant [5 x i8] c"%s%s\00", align 1
@.str.1 = private unnamed_addr constant [4 x i8] c"YES\00", align 1
@.str.2 = private unnamed_addr constant [3 x i8] c"NO\00", align 1

; Function Attrs: noinline nounwind uwtable
define dso_local void @main() #0 {
  %1 = alloca [50 x i8], align 16
  %2 = alloca [50 x i8], align 16
  %3 = alloca [52 x i32], align 16
  %4 = alloca [52 x i32], align 16
  %5 = alloca i32, align 4
  %6 = alloca i32, align 4
  %7 = alloca i32, align 4
  %8 = alloca i32, align 4
  %9 = alloca i32, align 4
  %10 = bitcast [52 x i32]* %3 to i8*
  call void @llvm.memset.p0i8.i64(i8* align 16 %10, i8 0, i64 208, i1 false)
  %11 = bitcast [52 x i32]* %4 to i8*
  call void @llvm.memset.p0i8.i64(i8* align 16 %11, i8 0, i64 208, i1 false)
  %12 = getelementptr inbounds [50 x i8], [50 x i8]* %1, i64 0, i64 0
  %13 = getelementptr inbounds [50 x i8], [50 x i8]* %2, i64 0, i64 0
  %14 = call i32 (i8*, ...) @__isoc99_scanf(i8* getelementptr inbounds ([5 x i8], [5 x i8]* @.str, i64 0, i64 0), i8* %12, i8* %13)
  %15 = getelementptr inbounds [50 x i8], [50 x i8]* %1, i64 0, i64 0
  %16 = call i64 @strlen(i8* %15) #4
  %17 = trunc i64 %16 to i32
  store i32 %17, i32* %5, align 4
  %18 = getelementptr inbounds [50 x i8], [50 x i8]* %2, i64 0, i64 0
  %19 = call i64 @strlen(i8* %18) #4
  %20 = trunc i64 %19 to i32
  store i32 %20, i32* %6, align 4
  store i32 0, i32* %9, align 4
  br label %21

21:                                               ; preds = %75, %0
  %22 = load i32, i32* %9, align 4
  %23 = load i32, i32* %5, align 4
  %24 = sub nsw i32 %23, 1
  %25 = icmp sle i32 %22, %24
  br i1 %25, label %26, label %78

26:                                               ; preds = %21
  %27 = load i32, i32* %9, align 4
  %28 = sext i32 %27 to i64
  %29 = getelementptr inbounds [50 x i8], [50 x i8]* %1, i64 0, i64 %28
  %30 = load i8, i8* %29, align 1
  %31 = sext i8 %30 to i32
  %32 = icmp sge i32 %31, 97
  br i1 %32, label %33, label %47

33:                                               ; preds = %26
  %34 = load i32, i32* %9, align 4
  %35 = sext i32 %34 to i64
  %36 = getelementptr inbounds [50 x i8], [50 x i8]* %1, i64 0, i64 %35
  %37 = load i8, i8* %36, align 1
  %38 = sext i8 %37 to i32
  %39 = icmp sle i32 %38, 122
  br i1 %39, label %40, label %47

40:                                               ; preds = %33
  %41 = load i32, i32* %9, align 4
  %42 = sext i32 %41 to i64
  %43 = getelementptr inbounds [50 x i8], [50 x i8]* %1, i64 0, i64 %42
  %44 = load i8, i8* %43, align 1
  %45 = sext i8 %44 to i32
  %46 = sub nsw i32 %45, 97
  store i32 %46, i32* %7, align 4
  br label %69

47:                                               ; preds = %33, %26
  %48 = load i32, i32* %9, align 4
  %49 = sext i32 %48 to i64
  %50 = getelementptr inbounds [50 x i8], [50 x i8]* %1, i64 0, i64 %49
  %51 = load i8, i8* %50, align 1
  %52 = sext i8 %51 to i32
  %53 = icmp sge i32 %52, 65
  br i1 %53, label %54, label %68

54:                                               ; preds = %47
  %55 = load i32, i32* %9, align 4
  %56 = sext i32 %55 to i64
  %57 = getelementptr inbounds [50 x i8], [50 x i8]* %1, i64 0, i64 %56
  %58 = load i8, i8* %57, align 1
  %59 = sext i8 %58 to i32
  %60 = icmp sle i32 %59, 90
  br i1 %60, label %61, label %68

61:                                               ; preds = %54
  %62 = load i32, i32* %9, align 4
  %63 = sext i32 %62 to i64
  %64 = getelementptr inbounds [50 x i8], [50 x i8]* %1, i64 0, i64 %63
  %65 = load i8, i8* %64, align 1
  %66 = sext i8 %65 to i32
  %67 = sub nsw i32 %66, 39
  store i32 %67, i32* %7, align 4
  br label %68

68:                                               ; preds = %61, %54, %47
  br label %69

69:                                               ; preds = %68, %40
  %70 = load i32, i32* %7, align 4
  %71 = sext i32 %70 to i64
  %72 = getelementptr inbounds [52 x i32], [52 x i32]* %3, i64 0, i64 %71
  %73 = load i32, i32* %72, align 4
  %74 = add nsw i32 %73, 1
  store i32 %74, i32* %72, align 4
  br label %75

75:                                               ; preds = %69
  %76 = load i32, i32* %9, align 4
  %77 = add nsw i32 %76, 1
  store i32 %77, i32* %9, align 4
  br label %21

78:                                               ; preds = %21
  store i32 0, i32* %9, align 4
  br label %79

79:                                               ; preds = %133, %78
  %80 = load i32, i32* %9, align 4
  %81 = load i32, i32* %6, align 4
  %82 = sub nsw i32 %81, 1
  %83 = icmp sle i32 %80, %82
  br i1 %83, label %84, label %136

84:                                               ; preds = %79
  %85 = load i32, i32* %9, align 4
  %86 = sext i32 %85 to i64
  %87 = getelementptr inbounds [50 x i8], [50 x i8]* %2, i64 0, i64 %86
  %88 = load i8, i8* %87, align 1
  %89 = sext i8 %88 to i32
  %90 = icmp sge i32 %89, 97
  br i1 %90, label %91, label %105

91:                                               ; preds = %84
  %92 = load i32, i32* %9, align 4
  %93 = sext i32 %92 to i64
  %94 = getelementptr inbounds [50 x i8], [50 x i8]* %2, i64 0, i64 %93
  %95 = load i8, i8* %94, align 1
  %96 = sext i8 %95 to i32
  %97 = icmp sle i32 %96, 122
  br i1 %97, label %98, label %105

98:                                               ; preds = %91
  %99 = load i32, i32* %9, align 4
  %100 = sext i32 %99 to i64
  %101 = getelementptr inbounds [50 x i8], [50 x i8]* %2, i64 0, i64 %100
  %102 = load i8, i8* %101, align 1
  %103 = sext i8 %102 to i32
  %104 = sub nsw i32 %103, 97
  store i32 %104, i32* %8, align 4
  br label %127

105:                                              ; preds = %91, %84
  %106 = load i32, i32* %9, align 4
  %107 = sext i32 %106 to i64
  %108 = getelementptr inbounds [50 x i8], [50 x i8]* %2, i64 0, i64 %107
  %109 = load i8, i8* %108, align 1
  %110 = sext i8 %109 to i32
  %111 = icmp sge i32 %110, 65
  br i1 %111, label %112, label %126

112:                                              ; preds = %105
  %113 = load i32, i32* %9, align 4
  %114 = sext i32 %113 to i64
  %115 = getelementptr inbounds [50 x i8], [50 x i8]* %2, i64 0, i64 %114
  %116 = load i8, i8* %115, align 1
  %117 = sext i8 %116 to i32
  %118 = icmp sle i32 %117, 90
  br i1 %118, label %119, label %126

119:                                              ; preds = %112
  %120 = load i32, i32* %9, align 4
  %121 = sext i32 %120 to i64
  %122 = getelementptr inbounds [50 x i8], [50 x i8]* %2, i64 0, i64 %121
  %123 = load i8, i8* %122, align 1
  %124 = sext i8 %123 to i32
  %125 = sub nsw i32 %124, 39
  store i32 %125, i32* %8, align 4
  br label %126

126:                                              ; preds = %119, %112, %105
  br label %127

127:                                              ; preds = %126, %98
  %128 = load i32, i32* %8, align 4
  %129 = sext i32 %128 to i64
  %130 = getelementptr inbounds [52 x i32], [52 x i32]* %4, i64 0, i64 %129
  %131 = load i32, i32* %130, align 4
  %132 = add nsw i32 %131, 1
  store i32 %132, i32* %130, align 4
  br label %133

133:                                              ; preds = %127
  %134 = load i32, i32* %9, align 4
  %135 = add nsw i32 %134, 1
  store i32 %135, i32* %9, align 4
  br label %79

136:                                              ; preds = %79
  store i32 0, i32* %9, align 4
  br label %137

137:                                              ; preds = %152, %136
  %138 = load i32, i32* %9, align 4
  %139 = sext i32 %138 to i64
  %140 = getelementptr inbounds [52 x i32], [52 x i32]* %3, i64 0, i64 %139
  %141 = load i32, i32* %140, align 4
  %142 = load i32, i32* %9, align 4
  %143 = sext i32 %142 to i64
  %144 = getelementptr inbounds [52 x i32], [52 x i32]* %4, i64 0, i64 %143
  %145 = load i32, i32* %144, align 4
  %146 = icmp eq i32 %141, %145
  br i1 %146, label %147, label %150

147:                                              ; preds = %137
  %148 = load i32, i32* %9, align 4
  %149 = icmp sle i32 %148, 51
  br label %150

150:                                              ; preds = %147, %137
  %151 = phi i1 [ false, %137 ], [ %149, %147 ]
  br i1 %151, label %152, label %155

152:                                              ; preds = %150
  %153 = load i32, i32* %9, align 4
  %154 = add nsw i32 %153, 1
  store i32 %154, i32* %9, align 4
  br label %137

155:                                              ; preds = %150
  %156 = load i32, i32* %9, align 4
  %157 = icmp eq i32 %156, 52
  br i1 %157, label %158, label %160

158:                                              ; preds = %155
  %159 = call i32 (i8*, ...) @printf(i8* getelementptr inbounds ([4 x i8], [4 x i8]* @.str.1, i64 0, i64 0))
  br label %162

160:                                              ; preds = %155
  %161 = call i32 (i8*, ...) @printf(i8* getelementptr inbounds ([3 x i8], [3 x i8]* @.str.2, i64 0, i64 0))
  br label %162

162:                                              ; preds = %160, %158
  ret void
}

; Function Attrs: argmemonly nounwind willreturn
declare void @llvm.memset.p0i8.i64(i8* nocapture writeonly, i8, i64, i1 immarg) #1

declare dso_local i32 @__isoc99_scanf(i8*, ...) #2

; Function Attrs: nounwind readonly
declare dso_local i64 @strlen(i8*) #3

declare dso_local i32 @printf(i8*, ...) #2


!llvm.module.flags = !{!0}
!llvm.ident = !{!1}

!0 = !{i32 1, !"wchar_size", i32 4}
!1 = !{!"clang version 10.0.0-4ubuntu1 "}
