; ModuleID = 'source-C-CXX/35/14.c'
source_filename = "source-C-CXX/35/14.c"
target datalayout = "e-m:e-p270:32:32-p271:32:32-p272:64:64-i64:64-f80:128-n8:16:32:64-S128"
target triple = "x86_64-pc-linux-gnu"

@.str = private unnamed_addr constant [5 x i8] c"%s%s\00", align 1
@.str.1 = private unnamed_addr constant [4 x i8] c"YES\00", align 1
@.str.2 = private unnamed_addr constant [3 x i8] c"NO\00", align 1

; Function Attrs: nofree nounwind sspstrong uwtable
define dso_local void @main() local_unnamed_addr #0 {
  %1 = alloca [50 x i8], align 16
  %2 = alloca [50 x i8], align 16
  %3 = alloca [52 x i32], align 16
  %4 = alloca [52 x i32], align 16
  %5 = getelementptr inbounds [50 x i8], [50 x i8]* %1, i64 0, i64 0
  call void @llvm.lifetime.start.p0i8(i64 50, i8* nonnull %5) #5
  %6 = getelementptr inbounds [50 x i8], [50 x i8]* %2, i64 0, i64 0
  call void @llvm.lifetime.start.p0i8(i64 50, i8* nonnull %6) #5
  %7 = bitcast [52 x i32]* %3 to i8*
  call void @llvm.lifetime.start.p0i8(i64 208, i8* nonnull %7) #5
  call void @llvm.memset.p0i8.i64(i8* noundef nonnull align 16 dereferenceable(208) %7, i8 0, i64 208, i1 false)
  %8 = bitcast [52 x i32]* %4 to i8*
  call void @llvm.lifetime.start.p0i8(i64 208, i8* nonnull %8) #5
  call void @llvm.memset.p0i8.i64(i8* noundef nonnull align 16 dereferenceable(208) %8, i8 0, i64 208, i1 false)
  %9 = call i32 (i8*, ...) @__isoc99_scanf(i8* getelementptr inbounds ([5 x i8], [5 x i8]* @.str, i64 0, i64 0), i8* nonnull %5, i8* nonnull %6)
  %10 = call i64 @strlen(i8* noundef nonnull %5) #6
  %11 = trunc i64 %10 to i32
  %12 = call i64 @strlen(i8* noundef nonnull %6) #6
  %13 = trunc i64 %12 to i32
  %14 = icmp sgt i32 %11, 0
  br i1 %14, label %15, label %17

15:                                               ; preds = %0
  %16 = and i64 %10, 4294967295
  br label %21

17:                                               ; preds = %36, %0
  %18 = icmp sgt i32 %13, 0
  br i1 %18, label %19, label %67

19:                                               ; preds = %17
  %20 = and i64 %12, 4294967295
  br label %44

21:                                               ; preds = %15, %36
  %22 = phi i64 [ 0, %15 ], [ %42, %36 ]
  %23 = phi i32 [ undef, %15 ], [ %37, %36 ]
  %24 = getelementptr inbounds [50 x i8], [50 x i8]* %1, i64 0, i64 %22
  %25 = load i8, i8* %24, align 1, !tbaa !5
  %26 = sext i8 %25 to i32
  %27 = add i8 %25, -97
  %28 = icmp ult i8 %27, 26
  br i1 %28, label %29, label %31

29:                                               ; preds = %21
  %30 = add nsw i32 %26, -97
  br label %36

31:                                               ; preds = %21
  %32 = add i8 %25, -65
  %33 = icmp ult i8 %32, 26
  %34 = add nsw i32 %26, -39
  %35 = select i1 %33, i32 %34, i32 %23
  br label %36

36:                                               ; preds = %31, %29
  %37 = phi i32 [ %30, %29 ], [ %35, %31 ]
  %38 = sext i32 %37 to i64
  %39 = getelementptr inbounds [52 x i32], [52 x i32]* %3, i64 0, i64 %38
  %40 = load i32, i32* %39, align 4, !tbaa !8
  %41 = add nsw i32 %40, 1
  store i32 %41, i32* %39, align 4, !tbaa !8
  %42 = add nuw nsw i64 %22, 1
  %43 = icmp eq i64 %42, %16
  br i1 %43, label %17, label %21, !llvm.loop !10

44:                                               ; preds = %19, %59
  %45 = phi i64 [ 0, %19 ], [ %65, %59 ]
  %46 = phi i32 [ undef, %19 ], [ %60, %59 ]
  %47 = getelementptr inbounds [50 x i8], [50 x i8]* %2, i64 0, i64 %45
  %48 = load i8, i8* %47, align 1, !tbaa !5
  %49 = sext i8 %48 to i32
  %50 = add i8 %48, -97
  %51 = icmp ult i8 %50, 26
  br i1 %51, label %52, label %54

52:                                               ; preds = %44
  %53 = add nsw i32 %49, -97
  br label %59

54:                                               ; preds = %44
  %55 = add i8 %48, -65
  %56 = icmp ult i8 %55, 26
  %57 = add nsw i32 %49, -39
  %58 = select i1 %56, i32 %57, i32 %46
  br label %59

59:                                               ; preds = %54, %52
  %60 = phi i32 [ %53, %52 ], [ %58, %54 ]
  %61 = sext i32 %60 to i64
  %62 = getelementptr inbounds [52 x i32], [52 x i32]* %4, i64 0, i64 %61
  %63 = load i32, i32* %62, align 4, !tbaa !8
  %64 = add nsw i32 %63, 1
  store i32 %64, i32* %62, align 4, !tbaa !8
  %65 = add nuw nsw i64 %45, 1
  %66 = icmp eq i64 %65, %20
  br i1 %66, label %67, label %44, !llvm.loop !12

67:                                               ; preds = %59, %17
  br label %68

68:                                               ; preds = %67, %68
  %69 = phi i64 [ %77, %68 ], [ 0, %67 ]
  %70 = getelementptr inbounds [52 x i32], [52 x i32]* %3, i64 0, i64 %69
  %71 = load i32, i32* %70, align 4, !tbaa !8
  %72 = getelementptr inbounds [52 x i32], [52 x i32]* %4, i64 0, i64 %69
  %73 = load i32, i32* %72, align 4, !tbaa !8
  %74 = icmp eq i32 %71, %73
  %75 = icmp ult i64 %69, 52
  %76 = select i1 %74, i1 %75, i1 false
  %77 = add nuw nsw i64 %69, 1
  br i1 %76, label %68, label %78, !llvm.loop !13

78:                                               ; preds = %68
  %79 = trunc i64 %69 to i32
  %80 = icmp eq i32 %79, 52
  %81 = select i1 %80, i8* getelementptr inbounds ([4 x i8], [4 x i8]* @.str.1, i64 0, i64 0), i8* getelementptr inbounds ([3 x i8], [3 x i8]* @.str.2, i64 0, i64 0)
  %82 = call i32 (i8*, ...) @printf(i8* nonnull dereferenceable(1) %81)
  call void @llvm.lifetime.end.p0i8(i64 208, i8* nonnull %8) #5
  call void @llvm.lifetime.end.p0i8(i64 208, i8* nonnull %7) #5
  call void @llvm.lifetime.end.p0i8(i64 50, i8* nonnull %6) #5
  call void @llvm.lifetime.end.p0i8(i64 50, i8* nonnull %5) #5
  ret void
}

; Function Attrs: argmemonly mustprogress nofree nosync nounwind willreturn
declare void @llvm.lifetime.start.p0i8(i64 immarg, i8* nocapture) #1

; Function Attrs: argmemonly mustprogress nofree nounwind willreturn writeonly
declare void @llvm.memset.p0i8.i64(i8* nocapture writeonly, i8, i64, i1 immarg) #2

; Function Attrs: nofree nounwind
declare noundef i32 @__isoc99_scanf(i8* nocapture noundef readonly, ...) local_unnamed_addr #3

; Function Attrs: argmemonly mustprogress nofree nounwind readonly willreturn
declare i64 @strlen(i8* nocapture) local_unnamed_addr #4

; Function Attrs: nofree nounwind
declare noundef i32 @printf(i8* nocapture noundef readonly, ...) local_unnamed_addr #3

; Function Attrs: argmemonly mustprogress nofree nosync nounwind willreturn
declare void @llvm.lifetime.end.p0i8(i64 immarg, i8* nocapture) #1


!llvm.module.flags = !{!0, !1, !2, !3}
!llvm.ident = !{!4}

!0 = !{i32 1, !"wchar_size", i32 4}
!1 = !{i32 7, !"PIC Level", i32 2}
!2 = !{i32 7, !"PIE Level", i32 2}
!3 = !{i32 7, !"uwtable", i32 1}
!4 = !{!"clang version 13.0.0"}
!5 = !{!6, !6, i64 0}
!6 = !{!"omnipotent char", !7, i64 0}
!7 = !{!"Simple C/C++ TBAA"}
!8 = !{!9, !9, i64 0}
!9 = !{!"int", !6, i64 0}
!10 = distinct !{!10, !11}
!11 = !{!"llvm.loop.mustprogress"}
!12 = distinct !{!12, !11}
!13 = distinct !{!13, !11}
